; Function Attrs: mustprogress uwtable
define noundef i32 @_ZNK6icu_7712CollationKey8hashCodeEv(ptr noundef nonnull align 8 dereferenceable(48) %0) local_unnamed_addr #2 align 2 {
  %2 = getelementptr inbounds nuw i8, ptr %0, i64 12
  %3 = load i32, ptr %2, align 4, !tbaa !11
  %4 = icmp eq i32 %3, 0
  br i1 %4, label %5, label %18

5:                                                ; preds = %1
  %6 = getelementptr inbounds nuw i8, ptr %0, i64 8
  %7 = load i32, ptr %6, align 8, !tbaa !6
  %8 = getelementptr inbounds nuw i8, ptr %0, i64 16
  %9 = load ptr, ptr %8, align 8
  %10 = icmp slt i32 %7, 0
  %11 = select i1 %10, ptr %9, ptr %8
  %12 = and i32 %7, 2147483647
  %13 = icmp eq ptr %11, null
  %14 = icmp eq i32 %12, 0
  %or.cond.i = or i1 %14, %13
  br i1 %or.cond.i, label %_ZN6icu_77L15computeHashCodeEPKhi.exit, label %15

15:                                               ; preds = %5
  %16 = tail call i32 @ustr_hashCharsN_77(ptr noundef nonnull %11, i32 noundef %12)
  %17 = and i32 %16, -3
  %or.cond3.i = icmp eq i32 %17, 0
  %spec.store.select.i = select i1 %or.cond3.i, i32 1, i32 %16
  br label %_ZN6icu_77L15computeHashCodeEPKhi.exit

_ZN6icu_77L15computeHashCodeEPKhi.exit:           ; preds = %5, %15
  %.0.i = phi i32 [ %spec.store.select.i, %15 ], [ 1, %5 ]
  store i32 %.0.i, ptr %2, align 4, !tbaa !11
  br label %18

18:                                               ; preds = %_ZN6icu_77L15computeHashCodeEPKhi.exit, %1
  %19 = phi i32 [ %.0.i, %_ZN6icu_77L15computeHashCodeEPKhi.exit ], [ %3, %1 ]
  ret i32 %19
}